; Function Attrs: nounwind uwtable
define noundef i32 @SUNAdaptController_Reset_MRIHTol(ptr noundef readonly captures(none) %0) #0 {
  %2 = load ptr, ptr %0, align 8, !tbaa !27
  %3 = load ptr, ptr %2, align 8, !tbaa !19
  %4 = tail call i32 @SUNAdaptController_Reset(ptr noundef %3) #9
  %5 = load ptr, ptr %0, align 8, !tbaa !27
  %6 = getelementptr inbounds nuw i8, ptr %5, i64 8
  %7 = load ptr, ptr %6, align 8, !tbaa !23
  %8 = tail call i32 @SUNAdaptController_Reset(ptr noundef %7) #9
  ret i32 0
}